; Function Attrs: mustprogress uwtable
define dso_local void @_ZN6spdlog7details11thread_poolC2EmmSt8functionIFvvEE(ptr noundef nonnull align 8 dereferenceable(224) %this, i64 noundef %q_max_items, i64 noundef %threads_n, ptr noundef %on_thread_start) unnamed_addr #0 align 2 personality ptr @__gxx_personality_v0 {
entry:
  %agg.tmp = alloca %"class.std::function.37", align 8
  %agg.tmp2 = alloca %"class.std::function.37", align 8
  %_M_manager.i.i = getelementptr inbounds i8, ptr %agg.tmp, i64 16
  %_M_manager.i.i.i = getelementptr inbounds i8, ptr %on_thread_start, i64 16
  call void @llvm.memset.p0.i64(ptr noundef nonnull align 8 dereferenceable(32) %agg.tmp, i8 0, i64 32, i1 false)
  %0 = load ptr, ptr %_M_manager.i.i.i, align 8
  %tobool.not.i.i.not.i = icmp eq ptr %0, null
  br i1 %tobool.not.i.i.not.i, label %_ZNSt8functionIFvvEEC2ERKS1_.exit, label %if.then.i

if.then.i:                                        ; preds = %entry
  %call3.i = invoke noundef zeroext i1 %0(ptr noundef nonnull align 8 dereferenceable(16) %agg.tmp, ptr noundef nonnull align 8 dereferenceable(16) %on_thread_start, i32 noundef 2)
          to label %invoke.cont.i unwind label %lpad.i

invoke.cont.i:                                    ; preds = %if.then.i
  %1 = load <2 x ptr>, ptr %_M_manager.i.i.i, align 8
  store <2 x ptr> %1, ptr %_M_manager.i.i, align 8
  br label %_ZNSt8functionIFvvEEC2ERKS1_.exit

lpad.i:                                           ; preds = %if.then.i
  %2 = landingpad { ptr, i32 }
          cleanup
  %3 = load ptr, ptr %_M_manager.i.i, align 8
  %tobool.not.i.i = icmp eq ptr %3, null
  br i1 %tobool.not.i.i, label %common.resume, label %if.then.i.i

if.then.i.i:                                      ; preds = %lpad.i
  %call.i.i = invoke noundef zeroext i1 %3(ptr noundef nonnull align 8 dereferenceable(16) %agg.tmp, ptr noundef nonnull align 8 dereferenceable(16) %agg.tmp, i32 noundef 3)
          to label %common.resume unwind label %terminate.lpad.i.i

terminate.lpad.i.i:                               ; preds = %if.then.i.i
  %4 = landingpad { ptr, i32 }
          catch ptr null
  %5 = extractvalue { ptr, i32 } %4, 0
  call void @__clang_call_terminate(ptr %5) #20
  unreachable

common.resume:                                    ; preds = %if.then.i.i25, %_ZNSt8functionIFvvEED2Ev.exit22, %lpad.i, %if.then.i.i
  %common.resume.op = phi { ptr, i32 } [ %2, %if.then.i.i ], [ %2, %lpad.i ], [ %12, %_ZNSt8functionIFvvEED2Ev.exit22 ], [ %12, %if.then.i.i25 ]
  resume { ptr, i32 } %common.resume.op

_ZNSt8functionIFvvEEC2ERKS1_.exit:                ; preds = %entry, %invoke.cont.i
  %_M_manager.i.i1 = getelementptr inbounds i8, ptr %agg.tmp2, i64 16
  %_M_invoker.i2 = getelementptr inbounds i8, ptr %agg.tmp2, i64 24
  call void @llvm.memset.p0.i64(ptr noundef nonnull align 8 dereferenceable(16) %agg.tmp2, i8 0, i64 16, i1 false)
  store ptr @"_ZNSt17_Function_handlerIFvvEZN6spdlog7details11thread_poolC1EmmSt8functionIS0_EE3$_0E9_M_invokeERKSt9_Any_data", ptr %_M_invoker.i2, align 8
  store ptr @"_ZNSt17_Function_handlerIFvvEZN6spdlog7details11thread_poolC1EmmSt8functionIS0_EE3$_0E10_M_managerERSt9_Any_dataRKS8_St18_Manager_operation", ptr %_M_manager.i.i1, align 8
  invoke void @_ZN6spdlog7details11thread_poolC2EmmSt8functionIFvvEES4_(ptr noundef nonnull align 8 dereferenceable(224) %this, i64 noundef %q_max_items, i64 noundef %threads_n, ptr noundef nonnull %agg.tmp, ptr noundef nonnull %agg.tmp2)
          to label %invoke.cont unwind label %lpad

invoke.cont:                                      ; preds = %_ZNSt8functionIFvvEEC2ERKS1_.exit
  %6 = load ptr, ptr %_M_manager.i.i1, align 8
  %tobool.not.i.i4 = icmp eq ptr %6, null
  br i1 %tobool.not.i.i4, label %_ZNSt8functionIFvvEED2Ev.exit, label %if.then.i.i5

if.then.i.i5:                                     ; preds = %invoke.cont
  %call.i.i6 = invoke noundef zeroext i1 %6(ptr noundef nonnull align 8 dereferenceable(16) %agg.tmp2, ptr noundef nonnull align 8 dereferenceable(16) %agg.tmp2, i32 noundef 3)
          to label %_ZNSt8functionIFvvEED2Ev.exit unwind label %terminate.lpad.i.i7

terminate.lpad.i.i7:                              ; preds = %if.then.i.i5
  %7 = landingpad { ptr, i32 }
          catch ptr null
  %8 = extractvalue { ptr, i32 } %7, 0
  call void @__clang_call_terminate(ptr %8) #20
  unreachable

_ZNSt8functionIFvvEED2Ev.exit:                    ; preds = %invoke.cont, %if.then.i.i5
  %9 = load ptr, ptr %_M_manager.i.i, align 8
  %tobool.not.i.i10 = icmp eq ptr %9, null
  br i1 %tobool.not.i.i10, label %_ZNSt8functionIFvvEED2Ev.exit15, label %if.then.i.i11

if.then.i.i11:                                    ; preds = %_ZNSt8functionIFvvEED2Ev.exit
  %call.i.i12 = invoke noundef zeroext i1 %9(ptr noundef nonnull align 8 dereferenceable(16) %agg.tmp, ptr noundef nonnull align 8 dereferenceable(16) %agg.tmp, i32 noundef 3)
          to label %_ZNSt8functionIFvvEED2Ev.exit15 unwind label %terminate.lpad.i.i13

terminate.lpad.i.i13:                             ; preds = %if.then.i.i11
  %10 = landingpad { ptr, i32 }
          catch ptr null
  %11 = extractvalue { ptr, i32 } %10, 0
  call void @__clang_call_terminate(ptr %11) #20
  unreachable

_ZNSt8functionIFvvEED2Ev.exit15:                  ; preds = %_ZNSt8functionIFvvEED2Ev.exit, %if.then.i.i11
  ret void

lpad:                                             ; preds = %_ZNSt8functionIFvvEEC2ERKS1_.exit
  %12 = landingpad { ptr, i32 }
          cleanup
  %13 = load ptr, ptr %_M_manager.i.i1, align 8
  %tobool.not.i.i17 = icmp eq ptr %13, null
  br i1 %tobool.not.i.i17, label %_ZNSt8functionIFvvEED2Ev.exit22, label %if.then.i.i18

if.then.i.i18:                                    ; preds = %lpad
  %call.i.i19 = invoke noundef zeroext i1 %13(ptr noundef nonnull align 8 dereferenceable(16) %agg.tmp2, ptr noundef nonnull align 8 dereferenceable(16) %agg.tmp2, i32 noundef 3)
          to label %_ZNSt8functionIFvvEED2Ev.exit22 unwind label %terminate.lpad.i.i20

terminate.lpad.i.i20:                             ; preds = %if.then.i.i18
  %14 = landingpad { ptr, i32 }
          catch ptr null
  %15 = extractvalue { ptr, i32 } %14, 0
  call void @__clang_call_terminate(ptr %15) #20
  unreachable

_ZNSt8functionIFvvEED2Ev.exit22:                  ; preds = %lpad, %if.then.i.i18
  %16 = load ptr, ptr %_M_manager.i.i, align 8
  %tobool.not.i.i24 = icmp eq ptr %16, null
  br i1 %tobool.not.i.i24, label %common.resume, label %if.then.i.i25

if.then.i.i25:                                    ; preds = %_ZNSt8functionIFvvEED2Ev.exit22
  %call.i.i26 = invoke noundef zeroext i1 %16(ptr noundef nonnull align 8 dereferenceable(16) %agg.tmp, ptr noundef nonnull align 8 dereferenceable(16) %agg.tmp, i32 noundef 3)
          to label %common.resume unwind label %terminate.lpad.i.i27

terminate.lpad.i.i27:                             ; preds = %if.then.i.i25
  %17 = landingpad { ptr, i32 }
          catch ptr null
  %18 = extractvalue { ptr, i32 } %17, 0
  call void @__clang_call_terminate(ptr %18) #20
  unreachable
}